; Function Attrs: mustprogress nofree norecurse nosync nounwind willreturn memory(argmem: readwrite) uwtable
define void @_ZN4base11PickleSizer8AddBytesEi(ptr noundef nonnull align 8 captures(none) dereferenceable(8) %0, i32 noundef %1) local_unnamed_addr #3 align 2 {
  %3 = sext i32 %1 to i64
  %4 = add nsw i64 %3, 3
  %5 = and i64 %4, -4
  %6 = load i64, ptr %0, align 8, !tbaa !3
  %7 = add i64 %6, %5
  store i64 %7, ptr %0, align 8, !tbaa !3
  ret void
}